target datalayout = "e-m:e-p270:32:32-p271:32:32-p272:64:64-i64:64-i128:128-f80:128-n8:16:32:64-S128"
target triple = "x86_64-pc-linux-gnu"

%struct.pointf_s = type { double, double }
%struct.GVJ_s = type { ptr, ptr, ptr, ptr, ptr, ptr, i32, ptr, ptr, ptr, ptr, i64, i64, ptr, i32, %struct.gvplugin_active_render_s, %struct.gvplugin_active_device_s, %struct.gvplugin_active_loadimage_t, ptr, %struct.pointf_s, i8, ptr, i32, ptr, i8, ptr, i32, i32, i32, %struct.point, %struct.point, %struct.point, %struct.point, %struct.point, i32, %struct.boxf, %struct.pointf_s, %struct.boxf, %struct.boxf, %struct.pointf_s, %struct.pointf_s, double, i32, %struct.pointf_s, %struct.boxf, %struct.pointf_s, %struct.pointf_s, i32, i32, %struct.box, %struct.box, %struct.pointf_s, %struct.pointf_s, %struct.pointf_s, i8, i8, i8, i8, i8, i8, %struct.pointf_s, %struct.pointf_s, ptr, ptr, ptr, ptr, ptr, ptr, i64, ptr }
%struct.gvplugin_active_render_s = type { ptr, i32, ptr, ptr }
%struct.gvplugin_active_device_s = type { ptr, i32, ptr, ptr }
%struct.gvplugin_active_loadimage_t = type { ptr, i32, ptr }
%struct.point = type { i32, i32 }
%struct.boxf = type { %struct.pointf_s, %struct.pointf_s }
%struct.box = type { %struct.point, %struct.point }
%struct.color_s = type { %union.anon, i32 }
%union.anon = type { [4 x double] }
%struct.obj_state_s = type { ptr, i32, %union.anon.0, i32, %struct.color_s, %struct.color_s, %struct.color_s, i32, double, i32, i32, double, ptr, double, double, double, ptr, ptr, ptr, ptr, ptr, ptr, ptr, ptr, ptr, ptr, ptr, ptr, ptr, ptr, ptr, ptr, ptr, i16, i32, i64, ptr, i64, ptr, ptr, i32, ptr, i32, ptr }
%union.anon.0 = type { ptr }

@.str.33 = private unnamed_addr constant [10 x i8] c"</title>\0A\00", align 1
@.str.34 = private unnamed_addr constant [8 x i8] c"cluster\00", align 1
@.str.35 = private unnamed_addr constant [10 x i8] c">\0A<title>\00", align 1

; Function Attrs: nounwind uwtable
define internal void @svg_begin_cluster(ptr noundef %0) #0 {
  %2 = alloca ptr, align 8
  %3 = alloca ptr, align 8
  store ptr %0, ptr %2, align 8, !tbaa !3
  call void @llvm.lifetime.start.p0(i64 8, ptr %3) #9
  %4 = load ptr, ptr %2, align 8, !tbaa !3
  %5 = getelementptr inbounds nuw %struct.GVJ_s, ptr %4, i32 0, i32 4
  %6 = load ptr, ptr %5, align 8, !tbaa !50
  store ptr %6, ptr %3, align 8, !tbaa !51
  %7 = load ptr, ptr %2, align 8, !tbaa !3
  %8 = load ptr, ptr %3, align 8, !tbaa !51
  %9 = getelementptr inbounds nuw %struct.obj_state_s, ptr %8, i32 0, i32 21
  %10 = load ptr, ptr %9, align 8, !tbaa !61
  %11 = load ptr, ptr %3, align 8, !tbaa !51
  %12 = getelementptr inbounds nuw %struct.obj_state_s, ptr %11, i32 0, i32 2
  %13 = load ptr, ptr %12, align 8, !tbaa !47
  call void @svg_print_id_class(ptr noundef %7, ptr noundef %10, ptr noundef null, ptr noundef @.str.34, ptr noundef %13)
  %14 = load ptr, ptr %2, align 8, !tbaa !3
  %15 = call i32 @gvputs(ptr noundef %14, ptr noundef @.str.35)
  %16 = load ptr, ptr %2, align 8, !tbaa !3
  %17 = load ptr, ptr %3, align 8, !tbaa !51
  %18 = getelementptr inbounds nuw %struct.obj_state_s, ptr %17, i32 0, i32 2
  %19 = load ptr, ptr %18, align 8, !tbaa !47
  %20 = call ptr @agnameof(ptr noundef %19)
  %21 = call i32 @gvputs_xml(ptr noundef %16, ptr noundef %20)
  %22 = load ptr, ptr %2, align 8, !tbaa !3
  %23 = call i32 @gvputs(ptr noundef %22, ptr noundef @.str.33)
  call void @llvm.lifetime.end.p0(i64 8, ptr %3) #9
  ret void
}