; Function Attrs: nounwind uwtable
define internal void @svg_begin_cluster(ptr noundef %0) #0 {
  %2 = getelementptr inbounds nuw i8, ptr %0, i64 32
  %3 = load ptr, ptr %2, align 8, !tbaa !50
  %4 = getelementptr inbounds nuw i8, ptr %3, i64 256
  %5 = load ptr, ptr %4, align 8, !tbaa !59
  %6 = getelementptr inbounds nuw i8, ptr %3, i64 16
  %7 = load ptr, ptr %6, align 8, !tbaa !46
  tail call fastcc void @svg_print_id_class(ptr noundef %0, ptr noundef %5, ptr noundef null, ptr noundef nonnull @.str.34, ptr noundef %7)
  %8 = tail call i32 @gvputs(ptr noundef %0, ptr noundef nonnull @.str.35) #11
  %9 = load ptr, ptr %6, align 8, !tbaa !46
  %10 = tail call ptr @agnameof(ptr noundef %9) #11
  %11 = tail call i32 @gvputs_xml(ptr noundef %0, ptr noundef %10) #11
  %12 = tail call i32 @gvputs(ptr noundef %0, ptr noundef nonnull @.str.33) #11
  ret void
}